; Function Attrs: mustprogress uwtable
define dso_local ptr @_ZN4absl13time_internal4cctz15fixed_time_zoneERKNSt6chrono8durationIlSt5ratioILl1ELl1EEEE(ptr noundef nonnull align 8 dereferenceable(8) %0) local_unnamed_addr #0 personality ptr @__gxx_personality_v0 {
  %2 = alloca %"class.absl::time_internal::cctz::time_zone", align 8
  %3 = alloca %"class.std::__cxx11::basic_string", align 8
  store ptr null, ptr %2, align 8, !tbaa !4
  call void @llvm.lifetime.start.p0(i64 32, ptr nonnull %3) #8
  call void @_ZN4absl13time_internal4cctz17FixedOffsetToNameB5cxx11ERKNSt6chrono8durationIlSt5ratioILl1ELl1EEEE(ptr dead_on_unwind nonnull writable sret(%"class.std::__cxx11::basic_string") align 8 %3, ptr noundef nonnull align 8 dereferenceable(8) %0)
  %4 = invoke noundef zeroext i1 @_ZN4absl13time_internal4cctz9time_zone4Impl12LoadTimeZoneERKNSt7__cxx1112basic_stringIcSt11char_traitsIcESaIcEEEPS2_(ptr noundef nonnull align 8 dereferenceable(32) %3, ptr noundef nonnull %2)
          to label %_ZN4absl13time_internal4cctz14load_time_zoneERKNSt7__cxx1112basic_stringIcSt11char_traitsIcESaIcEEEPNS1_9time_zoneE.exit unwind label %14

_ZN4absl13time_internal4cctz14load_time_zoneERKNSt7__cxx1112basic_stringIcSt11char_traitsIcESaIcEEEPNS1_9time_zoneE.exit: ; preds = %1
  %5 = load ptr, ptr %3, align 8, !tbaa !13
  %6 = getelementptr inbounds nuw i8, ptr %3, i64 16
  %7 = icmp eq ptr %5, %6
  br i1 %7, label %_ZNKSt7__cxx1112basic_stringIcSt11char_traitsIcESaIcEE11_M_is_localEv.exit.thread.i.i, label %_ZNKSt7__cxx1112basic_stringIcSt11char_traitsIcESaIcEE11_M_is_localEv.exit.i.i

_ZNKSt7__cxx1112basic_stringIcSt11char_traitsIcESaIcEE11_M_is_localEv.exit.thread.i.i: ; preds = %_ZN4absl13time_internal4cctz14load_time_zoneERKNSt7__cxx1112basic_stringIcSt11char_traitsIcESaIcEEEPNS1_9time_zoneE.exit
  %8 = getelementptr inbounds nuw i8, ptr %3, i64 8
  %9 = load i64, ptr %8, align 8, !tbaa !16
  %10 = icmp ult i64 %9, 16
  call void @llvm.assume(i1 %10)
  br label %_ZNSt7__cxx1112basic_stringIcSt11char_traitsIcESaIcEED2Ev.exit

_ZNKSt7__cxx1112basic_stringIcSt11char_traitsIcESaIcEE11_M_is_localEv.exit.i.i: ; preds = %_ZN4absl13time_internal4cctz14load_time_zoneERKNSt7__cxx1112basic_stringIcSt11char_traitsIcESaIcEEEPNS1_9time_zoneE.exit
  %11 = load i64, ptr %6, align 8, !tbaa !18
  %12 = add i64 %11, 1
  call void @_ZdlPvm(ptr noundef %5, i64 noundef %12) #9
  br label %_ZNSt7__cxx1112basic_stringIcSt11char_traitsIcESaIcEED2Ev.exit

_ZNSt7__cxx1112basic_stringIcSt11char_traitsIcESaIcEED2Ev.exit: ; preds = %_ZNKSt7__cxx1112basic_stringIcSt11char_traitsIcESaIcEE11_M_is_localEv.exit.thread.i.i, %_ZNKSt7__cxx1112basic_stringIcSt11char_traitsIcESaIcEE11_M_is_localEv.exit.i.i
  call void @llvm.lifetime.end.p0(i64 32, ptr nonnull %3) #8
  %13 = load ptr, ptr %2, align 8
  ret ptr %13

14:                                               ; preds = %1
  %15 = landingpad { ptr, i32 }
          cleanup
  %16 = load ptr, ptr %3, align 8, !tbaa !13
  %17 = getelementptr inbounds nuw i8, ptr %3, i64 16
  %18 = icmp eq ptr %16, %17
  br i1 %18, label %_ZNKSt7__cxx1112basic_stringIcSt11char_traitsIcESaIcEE11_M_is_localEv.exit.thread.i.i3, label %_ZNKSt7__cxx1112basic_stringIcSt11char_traitsIcESaIcEE11_M_is_localEv.exit.i.i2

_ZNKSt7__cxx1112basic_stringIcSt11char_traitsIcESaIcEE11_M_is_localEv.exit.thread.i.i3: ; preds = %14
  %19 = getelementptr inbounds nuw i8, ptr %3, i64 8
  %20 = load i64, ptr %19, align 8, !tbaa !16
  %21 = icmp ult i64 %20, 16
  call void @llvm.assume(i1 %21)
  br label %_ZNSt7__cxx1112basic_stringIcSt11char_traitsIcESaIcEED2Ev.exit4

_ZNKSt7__cxx1112basic_stringIcSt11char_traitsIcESaIcEE11_M_is_localEv.exit.i.i2: ; preds = %14
  %22 = load i64, ptr %17, align 8, !tbaa !18
  %23 = add i64 %22, 1
  call void @_ZdlPvm(ptr noundef %16, i64 noundef %23) #9
  br label %_ZNSt7__cxx1112basic_stringIcSt11char_traitsIcESaIcEED2Ev.exit4

_ZNSt7__cxx1112basic_stringIcSt11char_traitsIcESaIcEED2Ev.exit4: ; preds = %_ZNKSt7__cxx1112basic_stringIcSt11char_traitsIcESaIcEE11_M_is_localEv.exit.thread.i.i3, %_ZNKSt7__cxx1112basic_stringIcSt11char_traitsIcESaIcEE11_M_is_localEv.exit.i.i2
  call void @llvm.lifetime.end.p0(i64 32, ptr nonnull %3) #8
  resume { ptr, i32 } %15
}